target datalayout = "e-m:e-p270:32:32-p271:32:32-p272:64:64-i64:64-i128:128-f80:128-n8:16:32:64-S128"
target triple = "x86_64-pc-linux-gnu"

%struct.wl_list = type { ptr, ptr }
%struct.SDL_Rect = type { i32, i32, i32, i32 }
%struct.SDL_CursorData = type { %union.anon.21, i8 }
%union.anon.21 = type { %struct.Wayland_CustomCursor }
%struct.Wayland_CustomCursor = type { ptr, i32, i32, %struct.wl_list }
%struct.SDL_Cursor = type { ptr, ptr }
%struct.SDL_Surface = type { i32, i32, i32, i32, i32, ptr, i32, ptr, i32, i32, ptr, i32, ptr, i32, ptr, i32, %struct.SDL_Rect, %struct.SDL_BlitMap }
%struct.SDL_BlitMap = type { i32, ptr, ptr, %struct.SDL_BlitInfo, i32, i32 }
%struct.SDL_BlitInfo = type { ptr, ptr, i32, i32, i32, i32, ptr, ptr, i32, i32, i32, i32, ptr, ptr, ptr, ptr, ptr, ptr, i32, i32, i8, i8, i8, i8 }

@WAYLAND_wl_list_init = external global ptr, align 8

; Function Attrs: nounwind uwtable
define internal ptr @Wayland_CreateCursor(ptr noundef %0, i32 noundef %1, i32 noundef %2) #0 {
  %4 = alloca ptr, align 8
  %5 = alloca ptr, align 8
  %6 = alloca i32, align 4
  %7 = alloca i32, align 4
  %8 = alloca ptr, align 8
  %9 = alloca ptr, align 8
  %10 = alloca i32, align 4
  store ptr %0, ptr %5, align 8
  store i32 %1, ptr %6, align 4
  store i32 %2, ptr %7, align 4
  call void @llvm.lifetime.start.p0(i64 8, ptr %8) #7
  %11 = call noalias ptr @SDL_calloc_REAL(i64 noundef 1, i64 noundef 16) #8
  store ptr %11, ptr %8, align 8
  %12 = load ptr, ptr %8, align 8
  %13 = icmp ne ptr %12, null
  br i1 %13, label %14, label %53

14:                                               ; preds = %3
  call void @llvm.lifetime.start.p0(i64 8, ptr %9) #7
  %15 = call noalias ptr @SDL_calloc_REAL(i64 noundef 1, i64 noundef 40) #8
  store ptr %15, ptr %9, align 8
  %16 = load ptr, ptr %9, align 8
  %17 = icmp ne ptr %16, null
  br i1 %17, label %20, label %18

18:                                               ; preds = %14
  %19 = load ptr, ptr %8, align 8
  call void @SDL_free_REAL(ptr noundef %19)
  store ptr null, ptr %4, align 8
  store i32 1, ptr %10, align 4
  br label %50

20:                                               ; preds = %14
  %21 = load ptr, ptr %9, align 8
  %22 = load ptr, ptr %8, align 8
  %23 = getelementptr inbounds nuw %struct.SDL_Cursor, ptr %22, i32 0, i32 1
  store ptr %21, ptr %23, align 8
  %24 = load ptr, ptr @WAYLAND_wl_list_init, align 8
  %25 = load ptr, ptr %9, align 8
  %26 = getelementptr inbounds nuw %struct.SDL_CursorData, ptr %25, i32 0, i32 0
  %27 = getelementptr inbounds nuw %struct.Wayland_CustomCursor, ptr %26, i32 0, i32 3
  call void %24(ptr noundef %27)
  %28 = load i32, ptr %6, align 4
  %29 = load ptr, ptr %9, align 8
  %30 = getelementptr inbounds nuw %struct.SDL_CursorData, ptr %29, i32 0, i32 0
  %31 = getelementptr inbounds nuw %struct.Wayland_CustomCursor, ptr %30, i32 0, i32 1
  store i32 %28, ptr %31, align 8
  %32 = load i32, ptr %7, align 4
  %33 = load ptr, ptr %9, align 8
  %34 = getelementptr inbounds nuw %struct.SDL_CursorData, ptr %33, i32 0, i32 0
  %35 = getelementptr inbounds nuw %struct.Wayland_CustomCursor, ptr %34, i32 0, i32 2
  store i32 %32, ptr %35, align 4
  %36 = load ptr, ptr %5, align 8
  %37 = load ptr, ptr %9, align 8
  %38 = getelementptr inbounds nuw %struct.SDL_CursorData, ptr %37, i32 0, i32 0
  %39 = getelementptr inbounds nuw %struct.Wayland_CustomCursor, ptr %38, i32 0, i32 0
  store ptr %36, ptr %39, align 8
  %40 = load ptr, ptr %5, align 8
  %41 = getelementptr inbounds nuw %struct.SDL_Surface, ptr %40, i32 0, i32 6
  %42 = load i32, ptr %41, align 8
  %43 = add nsw i32 %42, 1
  store i32 %43, ptr %41, align 8
  %44 = load ptr, ptr %5, align 8
  %45 = call zeroext i1 @SDL_SurfaceHasAlternateImages_REAL(ptr noundef %44)
  br i1 %45, label %49, label %46

46:                                               ; preds = %20
  %47 = load ptr, ptr %9, align 8
  %48 = call ptr @Wayland_CacheScaledCustomCursor(ptr noundef %47, double noundef 1.000000e+00)
  br label %49

49:                                               ; preds = %46, %20
  store i32 0, ptr %10, align 4
  br label %50

50:                                               ; preds = %49, %18
  call void @llvm.lifetime.end.p0(i64 8, ptr %9) #7
  %51 = load i32, ptr %10, align 4
  switch i32 %51, label %55 [
    i32 0, label %52
  ]

52:                                               ; preds = %50
  br label %53

53:                                               ; preds = %52, %3
  %54 = load ptr, ptr %8, align 8
  store ptr %54, ptr %4, align 8
  store i32 1, ptr %10, align 4
  br label %55

55:                                               ; preds = %53, %50
  call void @llvm.lifetime.end.p0(i64 8, ptr %8) #7
  %56 = load ptr, ptr %4, align 8
  ret ptr %56
}