; Function Attrs: nounwind uwtable
define internal noundef ptr @Wayland_CreateCursor(ptr noundef %0, i32 noundef %1, i32 noundef %2) #0 {
  %4 = tail call noalias dereferenceable_or_null(16) ptr @SDL_calloc_REAL(i64 noundef 1, i64 noundef 16) #7
  %.not = icmp eq ptr %4, null
  br i1 %.not, label %.thread, label %5

5:                                                ; preds = %3
  %6 = tail call noalias dereferenceable_or_null(40) ptr @SDL_calloc_REAL(i64 noundef 1, i64 noundef 40) #7
  %.not20.not = icmp eq ptr %6, null
  br i1 %.not20.not, label %19, label %7

7:                                                ; preds = %5
  %8 = getelementptr inbounds nuw i8, ptr %4, i64 8
  store ptr %6, ptr %8, align 8
  %9 = load ptr, ptr @WAYLAND_wl_list_init, align 8
  %10 = getelementptr inbounds nuw i8, ptr %6, i64 16
  tail call void %9(ptr noundef nonnull %10) #6
  %11 = getelementptr inbounds nuw i8, ptr %6, i64 8
  store i32 %1, ptr %11, align 8
  %12 = getelementptr inbounds nuw i8, ptr %6, i64 12
  store i32 %2, ptr %12, align 4
  store ptr %0, ptr %6, align 8
  %13 = getelementptr inbounds nuw i8, ptr %0, i64 32
  %14 = load i32, ptr %13, align 8
  %15 = add nsw i32 %14, 1
  store i32 %15, ptr %13, align 8
  %16 = tail call zeroext i1 @SDL_SurfaceHasAlternateImages_REAL(ptr noundef %0) #6
  br i1 %16, label %.thread, label %17

17:                                               ; preds = %7
  %18 = tail call fastcc ptr @Wayland_CacheScaledCustomCursor(ptr noundef nonnull %6, double noundef 1.000000e+00)
  br label %.thread

19:                                               ; preds = %5
  tail call void @SDL_free_REAL(ptr noundef nonnull %4) #6
  br label %.thread

.thread:                                          ; preds = %17, %7, %3, %19
  %.1 = phi ptr [ null, %19 ], [ null, %3 ], [ %4, %7 ], [ %4, %17 ]
  ret ptr %.1
}